target datalayout = "e-m:e-p270:32:32-p271:32:32-p272:64:64-i64:64-i128:128-f80:128-n8:16:32:64-S128"
target triple = "x86_64-pc-linux-gnu"

%struct.trav_visitor_t = type { ptr, ptr, ptr }
%struct.trav_print_udata_t = type { i64 }

@.str.1 = private unnamed_addr constant [2 x i8] c"/\00", align 1
@enable_error_stack = external global i32, align 4
@H5tools_ERR_STACK_g = external global i64, align 8
@H5tools_ERR_CLS_g = external global i64, align 8
@.str.2 = private unnamed_addr constant [106 x i8] c"generated/home/dtcxzyw/WorkSpace/Projects/compilers/llvm-opt-benchmark/bench/hdf5/hdf5/tools/lib/h5trav.c\00", align 1
@H5E_tools_g = external global i64, align 8
@H5E_tools_min_id_g = external global i64, align 8
@.str.3 = private unnamed_addr constant [16 x i8] c"traverse failed\00", align 1
@stderr = external global ptr, align 8
@.str.4 = private unnamed_addr constant [2 x i8] c"\0A\00", align 1
@__func__.h5trav_print = private unnamed_addr constant [13 x i8] c"h5trav_print\00", align 1

; Function Attrs: nounwind uwtable
define i32 @h5trav_print(i64 noundef %0) #0 {
  %2 = alloca i64, align 8
  %3 = alloca %struct.trav_print_udata_t, align 8
  %4 = alloca %struct.trav_visitor_t, align 8
  %5 = alloca i32, align 4
  store i64 %0, ptr %2, align 8, !tbaa !21
  call void @llvm.lifetime.start.p0(i64 8, ptr %3) #10
  call void @llvm.lifetime.start.p0(i64 24, ptr %4) #10
  call void @llvm.lifetime.start.p0(i64 4, ptr %5) #10
  store i32 0, ptr %5, align 4, !tbaa !3
  %6 = load i64, ptr %2, align 8, !tbaa !21
  %7 = getelementptr inbounds nuw %struct.trav_print_udata_t, ptr %3, i32 0, i32 0
  store i64 %6, ptr %7, align 8, !tbaa !103
  %8 = getelementptr inbounds nuw %struct.trav_visitor_t, ptr %4, i32 0, i32 0
  store ptr @trav_print_visit_obj, ptr %8, align 8, !tbaa !40
  %9 = getelementptr inbounds nuw %struct.trav_visitor_t, ptr %4, i32 0, i32 1
  store ptr @trav_print_visit_lnk, ptr %9, align 8, !tbaa !42
  %10 = getelementptr inbounds nuw %struct.trav_visitor_t, ptr %4, i32 0, i32 2
  store ptr %3, ptr %10, align 8, !tbaa !43
  %11 = load i64, ptr %2, align 8, !tbaa !21
  %12 = call i32 @traverse(i64 noundef %11, ptr noundef @.str.1, i1 noundef zeroext true, i1 noundef zeroext true, ptr noundef %4, i32 noundef 1)
  %13 = icmp slt i32 %12, 0
  br i1 %13, label %14, label %45

14:                                               ; preds = %1
  br label %15

15:                                               ; preds = %14
  br label %16

16:                                               ; preds = %15
  %17 = load i32, ptr @enable_error_stack, align 4, !tbaa !3
  %18 = icmp sgt i32 %17, 0
  br i1 %18, label %19, label %37

19:                                               ; preds = %16
  %20 = load i64, ptr @H5tools_ERR_STACK_g, align 8, !tbaa !21
  %21 = icmp sge i64 %20, 0
  br i1 %21, label %22, label %31

22:                                               ; preds = %19
  %23 = load i64, ptr @H5tools_ERR_CLS_g, align 8, !tbaa !21
  %24 = icmp sge i64 %23, 0
  br i1 %24, label %25, label %31

25:                                               ; preds = %22
  %26 = load i64, ptr @H5tools_ERR_STACK_g, align 8, !tbaa !21
  %27 = load i64, ptr @H5tools_ERR_CLS_g, align 8, !tbaa !21
  %28 = load i64, ptr @H5E_tools_g, align 8, !tbaa !21
  %29 = load i64, ptr @H5E_tools_min_id_g, align 8, !tbaa !21
  %30 = call i32 (i64, ptr, ptr, i32, i64, i64, i64, ptr, ...) @H5Epush2(i64 noundef %26, ptr noundef @.str.2, ptr noundef @__func__.h5trav_print, i32 noundef 1021, i64 noundef %27, i64 noundef %28, i64 noundef %29, ptr noundef @.str.3)
  br label %36

31:                                               ; preds = %22, %19
  %32 = load ptr, ptr @stderr, align 8, !tbaa !44
  %33 = call i32 (ptr, ptr, ...) @fprintf(ptr noundef %32, ptr noundef @.str.3) #10
  %34 = load ptr, ptr @stderr, align 8, !tbaa !44
  %35 = call i32 (ptr, ptr, ...) @fprintf(ptr noundef %34, ptr noundef @.str.4) #10
  br label %36

36:                                               ; preds = %31, %25
  br label %37

37:                                               ; preds = %36, %16
  br label %38

38:                                               ; preds = %37
  br label %39

39:                                               ; preds = %38
  br label %40

40:                                               ; preds = %39
  store i32 -1, ptr %5, align 4, !tbaa !3
  br label %46

41:                                               ; No predecessors!
  br label %42

42:                                               ; preds = %41
  br label %43

43:                                               ; preds = %42
  br label %44

44:                                               ; preds = %43
  br label %45

45:                                               ; preds = %44, %1
  br label %46

46:                                               ; preds = %45, %40
  %47 = load i32, ptr %5, align 4, !tbaa !3
  call void @llvm.lifetime.end.p0(i64 4, ptr %5) #10
  call void @llvm.lifetime.end.p0(i64 24, ptr %4) #10
  call void @llvm.lifetime.end.p0(i64 8, ptr %3) #10
  ret i32 %47
}